target datalayout = "e-m:e-p270:32:32-p271:32:32-p272:64:64-i64:64-i128:128-f80:128-n8:16:32:64-S128"
target triple = "x86_64-pc-linux-gnu"

%"class.std::__cxx11::basic_string" = type { %"struct.std::__cxx11::basic_string<char>::_Alloc_hider", i64, %union.anon }
%"struct.std::__cxx11::basic_string<char>::_Alloc_hider" = type { ptr }
%union.anon = type { i64, [8 x i8] }
%"class.nix::Settings" = type { %"class.nix::Config", %"class.std::__cxx11::basic_string", %"class.std::__cxx11::basic_string", %"class.std::__cxx11::basic_string", %"class.std::__cxx11::basic_string", %"class.std::__cxx11::basic_string", %"class.std::__cxx11::basic_string", %"class.std::vector.125", %"class.std::__cxx11::basic_string", %"class.std::__cxx11::basic_string", %"class.std::__cxx11::basic_string", %"class.nix::Setting.127", %"class.nix::Setting.28", %"class.nix::Setting.28", %"class.nix::Setting.28", i8, [7 x i8], %"class.nix::Setting.129", %"struct.nix::MaxBuildJobsSetting", %"class.nix::Setting.135", %"class.nix::Setting.135", i8, [7 x i8], %"class.nix::Setting.127", %"class.nix::Setting.137", %"class.nix::Setting.137", %"class.nix::Setting.141", %"class.nix::Setting.127", %"class.nix::Setting.28", %"class.nix::Setting.28", %"class.nix::Setting.137", %"class.nix::Setting.28", %"class.nix::Setting.28", %"class.nix::Setting.28", %"class.nix::Setting.28", %"class.nix::Setting.127", %"class.nix::Setting.28", %"class.nix::Setting.135", %"class.nix::Setting.135", %"class.nix::Setting.28", %"class.nix::Setting.28", %"class.nix::Setting.28", %"class.nix::Setting.28", %"class.nix::Setting.129", %"class.nix::Setting.135", %"class.nix::Setting.28", %"class.nix::Setting.28", %"class.nix::Setting.28", %"class.nix::Setting.28", %"class.nix::Setting.145", %"class.nix::Setting.32", %"class.nix::Setting.28", %"class.nix::Setting.28", %"class.nix::Setting.127", %"class.nix::Setting.127", %"class.nix::Setting.32", %"class.nix::Setting.28", %"class.nix::OptionalPathSetting", %"class.nix::Setting.141", %"class.nix::Setting.141", %"class.nix::Setting.135", %"class.nix::Setting.28", %"class.nix::Setting.32", %"class.nix::Setting.32", %"class.nix::Setting.141", %"class.nix::Setting.32", %"class.nix::Setting.135", %"class.nix::Setting.135", %"class.nix::Setting.28", %"class.nix::Setting.127", %"class.nix::Setting.127", %"class.nix::Setting.135", %"class.nix::Setting.127", %"class.nix::Setting.127", %"class.nix::Setting.28", %"class.nix::Setting.28", %"class.nix::Setting.32", %"class.nix::Setting.141", %"class.nix::Setting.129", %"class.nix::Setting.129", %"class.nix::Setting.129", %"struct.nix::PluginFilesSetting", %"class.nix::Setting.129", %"class.nix::Setting.28", %"class.nix::Setting.28", %"class.nix::Setting.149", %"class.nix::Setting.127" }
%"class.nix::Config" = type { %"class.nix::AbstractConfig", %"class.std::map.9" }
%"class.nix::AbstractConfig" = type { ptr, %"class.std::map" }
%"class.std::map" = type { %"class.std::_Rb_tree" }
%"class.std::_Rb_tree" = type { %"struct.std::_Rb_tree<std::__cxx11::basic_string<char>, std::pair<const std::__cxx11::basic_string<char>, std::__cxx11::basic_string<char>>, std::_Select1st<std::pair<const std::__cxx11::basic_string<char>, std::__cxx11::basic_string<char>>>, std::less<std::__cxx11::basic_string<char>>>::_Rb_tree_impl" }
%"struct.std::_Rb_tree<std::__cxx11::basic_string<char>, std::pair<const std::__cxx11::basic_string<char>, std::__cxx11::basic_string<char>>, std::_Select1st<std::pair<const std::__cxx11::basic_string<char>, std::__cxx11::basic_string<char>>>, std::less<std::__cxx11::basic_string<char>>>::_Rb_tree_impl" = type { %"struct.std::_Rb_tree_key_compare", %"struct.std::_Rb_tree_header" }
%"struct.std::_Rb_tree_key_compare" = type { %"struct.std::less" }
%"struct.std::less" = type { i8 }
%"struct.std::_Rb_tree_header" = type { %"struct.std::_Rb_tree_node_base", i64 }
%"struct.std::_Rb_tree_node_base" = type { i32, ptr, ptr, ptr }
%"class.std::map.9" = type { %"class.std::_Rb_tree.10" }
%"class.std::_Rb_tree.10" = type { %"struct.std::_Rb_tree<std::__cxx11::basic_string<char>, std::pair<const std::__cxx11::basic_string<char>, nix::Config::SettingData>, std::_Select1st<std::pair<const std::__cxx11::basic_string<char>, nix::Config::SettingData>>, std::less<std::__cxx11::basic_string<char>>>::_Rb_tree_impl" }
%"struct.std::_Rb_tree<std::__cxx11::basic_string<char>, std::pair<const std::__cxx11::basic_string<char>, nix::Config::SettingData>, std::_Select1st<std::pair<const std::__cxx11::basic_string<char>, nix::Config::SettingData>>, std::less<std::__cxx11::basic_string<char>>>::_Rb_tree_impl" = type { %"struct.std::_Rb_tree_key_compare", %"struct.std::_Rb_tree_header" }
%"class.std::vector.125" = type { %"struct.std::_Vector_base.126" }
%"struct.std::_Vector_base.126" = type { %"struct.std::_Vector_base<std::__cxx11::basic_string<char>, std::allocator<std::__cxx11::basic_string<char>>>::_Vector_impl" }
%"struct.std::_Vector_base<std::__cxx11::basic_string<char>, std::allocator<std::__cxx11::basic_string<char>>>::_Vector_impl" = type { %"struct.std::_Vector_base<std::__cxx11::basic_string<char>, std::allocator<std::__cxx11::basic_string<char>>>::_Vector_impl_data" }
%"struct.std::_Vector_base<std::__cxx11::basic_string<char>, std::allocator<std::__cxx11::basic_string<char>>>::_Vector_impl_data" = type { ptr, ptr, ptr }
%"struct.nix::MaxBuildJobsSetting" = type { %"class.nix::BaseSetting.base.134", [7 x i8] }
%"class.nix::BaseSetting.base.134" = type <{ %"class.nix::AbstractSetting", i32, i32, i8 }>
%"class.nix::AbstractSetting" = type { ptr, %"class.std::__cxx11::basic_string", %"class.std::__cxx11::basic_string", %"class.std::set", i32, i8, [3 x i8], %"class.std::optional.18" }
%"class.std::set" = type { %"class.std::_Rb_tree.14" }
%"class.std::_Rb_tree.14" = type { %"struct.std::_Rb_tree<std::__cxx11::basic_string<char>, std::__cxx11::basic_string<char>, std::_Identity<std::__cxx11::basic_string<char>>, std::less<std::__cxx11::basic_string<char>>>::_Rb_tree_impl" }
%"struct.std::_Rb_tree<std::__cxx11::basic_string<char>, std::__cxx11::basic_string<char>, std::_Identity<std::__cxx11::basic_string<char>>, std::less<std::__cxx11::basic_string<char>>>::_Rb_tree_impl" = type { %"struct.std::_Rb_tree_key_compare", %"struct.std::_Rb_tree_header" }
%"class.std::optional.18" = type { %"struct.std::_Optional_base.19" }
%"struct.std::_Optional_base.19" = type { %"struct.std::_Optional_payload.21" }
%"struct.std::_Optional_payload.21" = type { %"struct.std::_Optional_payload_base.base.23", [3 x i8] }
%"struct.std::_Optional_payload_base.base.23" = type <{ %"union.std::_Optional_payload_base<nix::ExperimentalFeature>::_Storage", i8 }>
%"union.std::_Optional_payload_base<nix::ExperimentalFeature>::_Storage" = type { i32 }
%"class.nix::Setting.137" = type { %"class.nix::BaseSetting.base.139", [7 x i8] }
%"class.nix::BaseSetting.base.139" = type <{ %"class.nix::AbstractSetting", i64, i64, i8 }>
%"class.nix::Setting.145" = type { %"class.nix::BaseSetting.base.147", [7 x i8] }
%"class.nix::BaseSetting.base.147" = type <{ %"class.nix::AbstractSetting", i32, i32, i8 }>
%"class.nix::OptionalPathSetting" = type { %"class.nix::BaseSetting.base.57", [7 x i8] }
%"class.nix::BaseSetting.base.57" = type <{ %"class.nix::AbstractSetting", %"class.std::optional.47", %"class.std::optional.47", i8 }>
%"class.std::optional.47" = type { %"struct.std::_Optional_base.48" }
%"struct.std::_Optional_base.48" = type { %"struct.std::_Optional_payload.50" }
%"struct.std::_Optional_payload.50" = type { %"struct.std::_Optional_payload.base.54", [7 x i8] }
%"struct.std::_Optional_payload.base.54" = type { %"struct.std::_Optional_payload_base.base.53" }
%"struct.std::_Optional_payload_base.base.53" = type <{ %"union.std::_Optional_payload_base<std::__cxx11::basic_string<char>>::_Storage", i8 }>
%"union.std::_Optional_payload_base<std::__cxx11::basic_string<char>>::_Storage" = type { %"class.std::__cxx11::basic_string" }
%"class.nix::Setting.135" = type { %"class.nix::BaseSetting.base.134", [7 x i8] }
%"class.nix::Setting.32" = type { %"class.nix::BaseSetting.base.34", [7 x i8] }
%"class.nix::BaseSetting.base.34" = type <{ %"class.nix::AbstractSetting", %"class.std::set", %"class.std::set", i8 }>
%"class.nix::Setting.141" = type { %"class.nix::BaseSetting.base.143", [7 x i8] }
%"class.nix::BaseSetting.base.143" = type <{ %"class.nix::AbstractSetting", %"class.std::__cxx11::list.120", %"class.std::__cxx11::list.120", i8 }>
%"class.std::__cxx11::list.120" = type { %"class.std::__cxx11::_List_base.121" }
%"class.std::__cxx11::_List_base.121" = type { %"struct.std::__cxx11::_List_base<std::__cxx11::basic_string<char>, std::allocator<std::__cxx11::basic_string<char>>>::_List_impl" }
%"struct.std::__cxx11::_List_base<std::__cxx11::basic_string<char>, std::allocator<std::__cxx11::basic_string<char>>>::_List_impl" = type { %"struct.std::__detail::_List_node_header" }
%"struct.std::__detail::_List_node_header" = type { %"struct.std::__detail::_List_node_base", i64 }
%"struct.std::__detail::_List_node_base" = type { ptr, ptr }
%"struct.nix::PluginFilesSetting" = type { %"class.nix::BaseSetting.base.143", i8, [6 x i8] }
%"class.nix::Setting.129" = type { %"class.nix::BaseSetting.base.131", [7 x i8] }
%"class.nix::BaseSetting.base.131" = type <{ %"class.nix::AbstractSetting", i64, i64, i8 }>
%"class.nix::Setting.28" = type { %"class.nix::BaseSetting.base.30", [5 x i8] }
%"class.nix::BaseSetting.base.30" = type <{ %"class.nix::AbstractSetting", i8, i8, i8 }>
%"class.nix::Setting.149" = type { %"class.nix::BaseSetting.base.151", [7 x i8] }
%"class.nix::BaseSetting.base.151" = type <{ %"class.nix::AbstractSetting", %"class.std::map", %"class.std::map", i8 }>
%"class.nix::Setting.127" = type { %"class.nix::BaseSetting.base", [7 x i8] }
%"class.nix::BaseSetting.base" = type <{ %"class.nix::AbstractSetting", %"class.std::__cxx11::basic_string", %"class.std::__cxx11::basic_string", i8 }>

@_ZN3nix8settingsE = external global %"class.nix::Settings", align 8
@.str.20 = private unnamed_addr constant [24 x i8] c"/profiles/per-user/root\00", align 1
@.str.24 = private unnamed_addr constant [10 x i8] c"/channels\00", align 1

; Function Attrs: mustprogress uwtable
define void @_ZN3nix15rootProfilesDirB5cxx11Ev(ptr dead_on_unwind noalias writable sret(%"class.std::__cxx11::basic_string") align 8 %0) #5 {
  %2 = alloca ptr, align 8
  store ptr %0, ptr %2, align 8
  call void @_ZStplIcSt11char_traitsIcESaIcEENSt7__cxx1112basic_stringIT_T0_T1_EERKS8_PKS5_(ptr dead_on_unwind writable sret(%"class.std::__cxx11::basic_string") align 8 %0, ptr noundef nonnull align 8 dereferenceable(32) getelementptr inbounds (%"class.nix::Settings", ptr @_ZN3nix8settingsE, i32 0, i32 5), ptr noundef @.str.20)
  ret void
}

; Function Attrs: mustprogress uwtable
define void @_ZN3nix15rootChannelsDirB5cxx11Ev(ptr dead_on_unwind noalias writable sret(%"class.std::__cxx11::basic_string") align 8 %0) #5 personality ptr @__gxx_personality_v0 {
  %2 = alloca ptr, align 8
  %3 = alloca %"class.std::__cxx11::basic_string", align 8
  %4 = alloca ptr, align 8
  %5 = alloca i32, align 4
  store ptr %0, ptr %2, align 8
  call void @_ZN3nix15rootProfilesDirB5cxx11Ev(ptr dead_on_unwind writable sret(%"class.std::__cxx11::basic_string") align 8 %3)
  invoke void @_ZStplIcSt11char_traitsIcESaIcEENSt7__cxx1112basic_stringIT_T0_T1_EEOS8_PKS5_(ptr dead_on_unwind writable sret(%"class.std::__cxx11::basic_string") align 8 %0, ptr noundef nonnull align 8 dereferenceable(32) %3, ptr noundef @.str.24)
          to label %6 unwind label %7

6:                                                ; preds = %1
  call void @_ZNSt7__cxx1112basic_stringIcSt11char_traitsIcESaIcEED2Ev(ptr noundef nonnull align 8 dereferenceable(32) %3) #1
  ret void

7:                                                ; preds = %1
  %8 = landingpad { ptr, i32 }
          cleanup
  %9 = extractvalue { ptr, i32 } %8, 0
  store ptr %9, ptr %4, align 8
  %10 = extractvalue { ptr, i32 } %8, 1
  store i32 %10, ptr %5, align 4
  call void @_ZNSt7__cxx1112basic_stringIcSt11char_traitsIcESaIcEED2Ev(ptr noundef nonnull align 8 dereferenceable(32) %3) #1
  br label %11

11:                                               ; preds = %7
  %12 = load ptr, ptr %4, align 8
  %13 = load i32, ptr %5, align 4
  %14 = insertvalue { ptr, i32 } poison, ptr %12, 0
  %15 = insertvalue { ptr, i32 } %14, i32 %13, 1
  resume { ptr, i32 } %15
}